target datalayout = "e-m:e-p270:32:32-p271:32:32-p272:64:64-i64:64-i128:128-f80:128-n8:16:32:64-S128"
target triple = "x86_64-pc-linux-gnu"

%struct.pg_compress_specification = type { i32, i32, i32, i32, i8, ptr }
%struct._archiveHandle = type { %struct.Archive, i32, ptr, ptr, i64, i64, i32, %struct.sqlparseInfo, i64, i32, ptr, i64, i64, i64, ptr, ptr, ptr, ptr, ptr, ptr, ptr, ptr, ptr, ptr, ptr, ptr, ptr, ptr, ptr, ptr, ptr, ptr, ptr, ptr, ptr, ptr, ptr, ptr, ptr, ptr, ptr, ptr, ptr, ptr, i32, i32, i8, i32, i8, i32, ptr, ptr, ptr, ptr, i32, i32, ptr, ptr, ptr, %struct.pg_compress_specification, i8, i32, i32, ptr, ptr, ptr, ptr, ptr, i32, ptr, i64, i64, i32, i32, i32, i32, ptr, ptr }
%struct.Archive = type { ptr, ptr, i32, ptr, i32, i8, i32, i32, i32, ptr, i32, i8, ptr, ptr, i8, i32, ptr }
%struct.sqlparseInfo = type { i32, i8, ptr }

@.str.85 = private unnamed_addr constant [31 x i8] c"unexpected data offset flag %d\00", align 1
@.str.86 = private unnamed_addr constant [38 x i8] c"file offset in dump file is too large\00", align 1

; Function Attrs: nounwind uwtable
define dso_local i32 @ReadInt(ptr noundef %0) #0 {
  %2 = alloca ptr, align 8
  %3 = alloca i32, align 4
  %4 = alloca i32, align 4
  %5 = alloca i32, align 4
  %6 = alloca i32, align 4
  %7 = alloca i32, align 4
  store ptr %0, ptr %2, align 8
  call void @llvm.lifetime.start.p0(i64 4, ptr %3) #11
  store i32 0, ptr %3, align 4
  call void @llvm.lifetime.start.p0(i64 4, ptr %4) #11
  call void @llvm.lifetime.start.p0(i64 4, ptr %5) #11
  call void @llvm.lifetime.start.p0(i64 4, ptr %6) #11
  store i32 0, ptr %6, align 4
  call void @llvm.lifetime.start.p0(i64 4, ptr %7) #11
  store i32 0, ptr %7, align 4
  %8 = load ptr, ptr %2, align 8
  %9 = getelementptr inbounds nuw %struct._archiveHandle, ptr %8, i32 0, i32 1
  %10 = load i32, ptr %9, align 8
  %11 = icmp sgt i32 %10, 65536
  br i1 %11, label %12, label %18

12:                                               ; preds = %1
  %13 = load ptr, ptr %2, align 8
  %14 = getelementptr inbounds nuw %struct._archiveHandle, ptr %13, i32 0, i32 19
  %15 = load ptr, ptr %14, align 8
  %16 = load ptr, ptr %2, align 8
  %17 = call i32 %15(ptr noundef %16)
  store i32 %17, ptr %6, align 4
  br label %18

18:                                               ; preds = %12, %1
  store i32 0, ptr %5, align 4
  br label %19

19:                                               ; preds = %44, %18
  %20 = load i32, ptr %5, align 4
  %21 = sext i32 %20 to i64
  %22 = load ptr, ptr %2, align 8
  %23 = getelementptr inbounds nuw %struct._archiveHandle, ptr %22, i32 0, i32 4
  %24 = load i64, ptr %23, align 8
  %25 = icmp ult i64 %21, %24
  br i1 %25, label %26, label %47

26:                                               ; preds = %19
  %27 = load ptr, ptr %2, align 8
  %28 = getelementptr inbounds nuw %struct._archiveHandle, ptr %27, i32 0, i32 19
  %29 = load ptr, ptr %28, align 8
  %30 = load ptr, ptr %2, align 8
  %31 = call i32 %29(ptr noundef %30)
  %32 = and i32 %31, 255
  store i32 %32, ptr %4, align 4
  %33 = load i32, ptr %4, align 4
  %34 = icmp ne i32 %33, 0
  br i1 %34, label %35, label %41

35:                                               ; preds = %26
  %36 = load i32, ptr %3, align 4
  %37 = load i32, ptr %4, align 4
  %38 = load i32, ptr %7, align 4
  %39 = shl i32 %37, %38
  %40 = add i32 %36, %39
  store i32 %40, ptr %3, align 4
  br label %41

41:                                               ; preds = %35, %26
  %42 = load i32, ptr %7, align 4
  %43 = add i32 %42, 8
  store i32 %43, ptr %7, align 4
  br label %44

44:                                               ; preds = %41
  %45 = load i32, ptr %5, align 4
  %46 = add i32 %45, 1
  store i32 %46, ptr %5, align 4
  br label %19, !llvm.loop !25

47:                                               ; preds = %19
  %48 = load i32, ptr %6, align 4
  %49 = icmp ne i32 %48, 0
  br i1 %49, label %50, label %53

50:                                               ; preds = %47
  %51 = load i32, ptr %3, align 4
  %52 = sub i32 0, %51
  store i32 %52, ptr %3, align 4
  br label %53

53:                                               ; preds = %50, %47
  %54 = load i32, ptr %3, align 4
  call void @llvm.lifetime.end.p0(i64 4, ptr %7) #11
  call void @llvm.lifetime.end.p0(i64 4, ptr %6) #11
  call void @llvm.lifetime.end.p0(i64 4, ptr %5) #11
  call void @llvm.lifetime.end.p0(i64 4, ptr %4) #11
  call void @llvm.lifetime.end.p0(i64 4, ptr %3) #11
  ret i32 %54
}

; Function Attrs: nounwind uwtable
define dso_local i32 @ReadOffset(ptr noundef %0, ptr noundef %1) #0 {
  %3 = alloca i32, align 4
  %4 = alloca ptr, align 8
  %5 = alloca ptr, align 8
  %6 = alloca i32, align 4
  %7 = alloca i32, align 4
  %8 = alloca i32, align 4
  %9 = alloca i32, align 4
  store ptr %0, ptr %4, align 8
  store ptr %1, ptr %5, align 8
  call void @llvm.lifetime.start.p0(i64 4, ptr %6) #11
  call void @llvm.lifetime.start.p0(i64 4, ptr %7) #11
  call void @llvm.lifetime.start.p0(i64 4, ptr %8) #11
  %10 = load ptr, ptr %5, align 8
  store i64 0, ptr %10, align 8
  %11 = load ptr, ptr %4, align 8
  %12 = getelementptr inbounds nuw %struct._archiveHandle, ptr %11, i32 0, i32 1
  %13 = load i32, ptr %12, align 8
  %14 = icmp slt i32 %13, 67328
  br i1 %14, label %15, label %30

15:                                               ; preds = %2
  %16 = load ptr, ptr %4, align 8
  %17 = call i32 @ReadInt(ptr noundef %16)
  store i32 %17, ptr %6, align 4
  %18 = load i32, ptr %6, align 4
  %19 = icmp slt i32 %18, 0
  br i1 %19, label %20, label %21

20:                                               ; preds = %15
  store i32 1, ptr %3, align 4
  store i32 1, ptr %9, align 4
  br label %88

21:                                               ; preds = %15
  %22 = load i32, ptr %6, align 4
  %23 = icmp eq i32 %22, 0
  br i1 %23, label %24, label %25

24:                                               ; preds = %21
  store i32 3, ptr %3, align 4
  store i32 1, ptr %9, align 4
  br label %88

25:                                               ; preds = %21
  br label %26

26:                                               ; preds = %25
  %27 = load i32, ptr %6, align 4
  %28 = sext i32 %27 to i64
  %29 = load ptr, ptr %5, align 8
  store i64 %28, ptr %29, align 8
  store i32 2, ptr %3, align 4
  store i32 1, ptr %9, align 4
  br label %88

30:                                               ; preds = %2
  %31 = load ptr, ptr %4, align 8
  %32 = getelementptr inbounds nuw %struct._archiveHandle, ptr %31, i32 0, i32 19
  %33 = load ptr, ptr %32, align 8
  %34 = load ptr, ptr %4, align 8
  %35 = call i32 %33(ptr noundef %34)
  %36 = and i32 %35, 255
  store i32 %36, ptr %8, align 4
  %37 = load i32, ptr %8, align 4
  switch i32 %37, label %39 [
    i32 1, label %38
    i32 3, label %38
    i32 2, label %38
  ]

38:                                               ; preds = %30, %30, %30
  br label %44

39:                                               ; preds = %30
  br label %40

40:                                               ; preds = %39
  %41 = load i32, ptr %8, align 4
  call void (i32, i32, ptr, ...) @pg_log_generic(i32 noundef 4, i32 noundef 0, ptr noundef @.str.85, i32 noundef %41)
  call void @exit_nicely(i32 noundef 1) #12
  unreachable

42:                                               ; No predecessors!
  br label %43

43:                                               ; preds = %42
  br label %44

44:                                               ; preds = %43, %38
  store i32 0, ptr %7, align 4
  br label %45

45:                                               ; preds = %83, %44
  %46 = load i32, ptr %7, align 4
  %47 = sext i32 %46 to i64
  %48 = load ptr, ptr %4, align 8
  %49 = getelementptr inbounds nuw %struct._archiveHandle, ptr %48, i32 0, i32 5
  %50 = load i64, ptr %49, align 8
  %51 = icmp ult i64 %47, %50
  br i1 %51, label %52, label %86

52:                                               ; preds = %45
  %53 = load i32, ptr %7, align 4
  %54 = sext i32 %53 to i64
  %55 = icmp ult i64 %54, 8
  br i1 %55, label %56, label %70

56:                                               ; preds = %52
  %57 = load ptr, ptr %4, align 8
  %58 = getelementptr inbounds nuw %struct._archiveHandle, ptr %57, i32 0, i32 19
  %59 = load ptr, ptr %58, align 8
  %60 = load ptr, ptr %4, align 8
  %61 = call i32 %59(ptr noundef %60)
  %62 = sext i32 %61 to i64
  %63 = load i32, ptr %7, align 4
  %64 = mul i32 %63, 8
  %65 = zext i32 %64 to i64
  %66 = shl i64 %62, %65
  %67 = load ptr, ptr %5, align 8
  %68 = load i64, ptr %67, align 8
  %69 = or i64 %68, %66
  store i64 %69, ptr %67, align 8
  br label %82

70:                                               ; preds = %52
  %71 = load ptr, ptr %4, align 8
  %72 = getelementptr inbounds nuw %struct._archiveHandle, ptr %71, i32 0, i32 19
  %73 = load ptr, ptr %72, align 8
  %74 = load ptr, ptr %4, align 8
  %75 = call i32 %73(ptr noundef %74)
  %76 = icmp ne i32 %75, 0
  br i1 %76, label %77, label %81

77:                                               ; preds = %70
  br label %78

78:                                               ; preds = %77
  call void (i32, i32, ptr, ...) @pg_log_generic(i32 noundef 4, i32 noundef 0, ptr noundef @.str.86)
  call void @exit_nicely(i32 noundef 1) #12
  unreachable

79:                                               ; No predecessors!
  br label %80

80:                                               ; preds = %79
  br label %81

81:                                               ; preds = %80, %70
  br label %82

82:                                               ; preds = %81, %56
  br label %83

83:                                               ; preds = %82
  %84 = load i32, ptr %7, align 4
  %85 = add i32 %84, 1
  store i32 %85, ptr %7, align 4
  br label %45, !llvm.loop !24

86:                                               ; preds = %45
  %87 = load i32, ptr %8, align 4
  store i32 %87, ptr %3, align 4
  store i32 1, ptr %9, align 4
  br label %88

88:                                               ; preds = %86, %26, %24, %20
  call void @llvm.lifetime.end.p0(i64 4, ptr %8) #11
  call void @llvm.lifetime.end.p0(i64 4, ptr %7) #11
  call void @llvm.lifetime.end.p0(i64 4, ptr %6) #11
  %89 = load i32, ptr %3, align 4
  ret i32 %89
}