; Function Attrs: nounwind uwtable
define dso_local range(i32 0, 256) i32 @ReadOffset(ptr noundef %0, ptr noundef captures(none) initializes((0, 8)) %1) local_unnamed_addr #0 {
  store i64 0, ptr %1, align 8
  %3 = getelementptr inbounds nuw i8, ptr %0, i64 104
  %4 = load i32, ptr %3, align 8
  %5 = icmp slt i32 %4, 67328
  br i1 %5, label %6, label %34

6:                                                ; preds = %2
  %7 = icmp sgt i32 %4, 65536
  br i1 %7, label %8, label %13

8:                                                ; preds = %6
  %9 = getelementptr inbounds nuw i8, ptr %0, i64 256
  %10 = load ptr, ptr %9, align 8
  %11 = tail call i32 %10(ptr noundef nonnull %0) #22
  %12 = icmp eq i32 %11, 0
  br label %13

13:                                               ; preds = %8, %6
  %.015.i = phi i1 [ %12, %8 ], [ true, %6 ]
  %14 = getelementptr inbounds nuw i8, ptr %0, i64 128
  %15 = load i64, ptr %14, align 8
  %.not22.i = icmp eq i64 %15, 0
  br i1 %.not22.i, label %ReadInt.exit, label %.lr.ph.i

.lr.ph.i:                                         ; preds = %13
  %16 = getelementptr inbounds nuw i8, ptr %0, i64 256
  br label %17

17:                                               ; preds = %17, %.lr.ph.i
  %.021.i = phi i32 [ 0, %.lr.ph.i ], [ %23, %17 ]
  %.01620.i = phi i32 [ 0, %.lr.ph.i ], [ %24, %17 ]
  %.01719.i = phi i32 [ 0, %.lr.ph.i ], [ %.1.i, %17 ]
  %18 = load ptr, ptr %16, align 8
  %19 = tail call i32 %18(ptr noundef nonnull %0) #22
  %20 = and i32 %19, 255
  %.not.i = icmp eq i32 %20, 0
  %21 = shl i32 %20, %.021.i
  %22 = select i1 %.not.i, i32 0, i32 %21
  %.1.i = add i32 %22, %.01719.i
  %23 = add i32 %.021.i, 8
  %24 = add i32 %.01620.i, 1
  %25 = sext i32 %24 to i64
  %26 = load i64, ptr %14, align 8
  %27 = icmp ugt i64 %26, %25
  br i1 %27, label %17, label %ReadInt.exit, !llvm.loop !45

ReadInt.exit:                                     ; preds = %17, %13
  %.017.lcssa.i = phi i32 [ 0, %13 ], [ %.1.i, %17 ]
  %28 = sub i32 0, %.017.lcssa.i
  %spec.select.i = select i1 %.015.i, i32 %.017.lcssa.i, i32 %28
  %29 = icmp slt i32 %spec.select.i, 0
  br i1 %29, label %.loopexit, label %30

30:                                               ; preds = %ReadInt.exit
  %31 = icmp eq i32 %spec.select.i, 0
  br i1 %31, label %.loopexit, label %32

32:                                               ; preds = %30
  %33 = zext nneg i32 %spec.select.i to i64
  store i64 %33, ptr %1, align 8
  br label %.loopexit

34:                                               ; preds = %2
  %35 = getelementptr inbounds nuw i8, ptr %0, i64 256
  %36 = load ptr, ptr %35, align 8
  %37 = tail call i32 %36(ptr noundef nonnull %0) #22
  %38 = and i32 %37, 255
  %trunc = trunc i32 %37 to i8
  %trunc.off = add i8 %trunc, -1
  %switch = icmp ult i8 %trunc.off, 3
  br i1 %switch, label %.preheader, label %41

.preheader:                                       ; preds = %34
  %39 = getelementptr inbounds nuw i8, ptr %0, i64 136
  %40 = load i64, ptr %39, align 8
  %.not26 = icmp eq i64 %40, 0
  br i1 %.not26, label %.loopexit, label %.lr.ph

41:                                               ; preds = %34
  tail call void (i32, i32, ptr, ...) @pg_log_generic(i32 noundef 4, i32 noundef 0, ptr noundef nonnull @.str.85, i32 noundef %38) #22
  tail call void @exit_nicely(i32 noundef 1) #23
  unreachable

.lr.ph:                                           ; preds = %.preheader, %54
  %.02225 = phi i32 [ %55, %54 ], [ 0, %.preheader ]
  %42 = icmp ult i32 %.02225, 8
  %43 = load ptr, ptr %35, align 8
  %44 = tail call i32 %43(ptr noundef nonnull %0) #22
  br i1 %42, label %45, label %52

45:                                               ; preds = %.lr.ph
  %46 = sext i32 %44 to i64
  %47 = shl nuw nsw i32 %.02225, 3
  %48 = zext nneg i32 %47 to i64
  %49 = shl i64 %46, %48
  %50 = load i64, ptr %1, align 8
  %51 = or i64 %49, %50
  store i64 %51, ptr %1, align 8
  br label %54

52:                                               ; preds = %.lr.ph
  %.not = icmp eq i32 %44, 0
  br i1 %.not, label %54, label %53

53:                                               ; preds = %52
  tail call void (i32, i32, ptr, ...) @pg_log_generic(i32 noundef 4, i32 noundef 0, ptr noundef nonnull @.str.86) #22
  tail call void @exit_nicely(i32 noundef 1) #23
  unreachable

54:                                               ; preds = %45, %52
  %55 = add i32 %.02225, 1
  %56 = sext i32 %55 to i64
  %57 = load i64, ptr %39, align 8
  %58 = icmp ugt i64 %57, %56
  br i1 %58, label %.lr.ph, label %.loopexit, !llvm.loop !46

.loopexit:                                        ; preds = %54, %.preheader, %30, %ReadInt.exit, %32
  %.0 = phi i32 [ 2, %32 ], [ 1, %ReadInt.exit ], [ 3, %30 ], [ %38, %.preheader ], [ %38, %54 ]
  ret i32 %.0
}